target datalayout = "e-m:e-p270:32:32-p271:32:32-p272:64:64-i64:64-i128:128-f80:128-n8:16:32:64-S128"
target triple = "x86_64-pc-linux-gnu"

%struct.NameEntry = type { ptr, i32, i32, i32, i32, ptr }
%struct.GroupNumMap = type { i32 }

; Function Attrs: nounwind uwtable
define internal i32 @i_renumber_name(i64 noundef %0, i64 noundef %1, i64 noundef %2) #0 {
  %4 = alloca i64, align 8
  %5 = alloca i64, align 8
  %6 = alloca i64, align 8
  %7 = alloca i32, align 4
  %8 = alloca ptr, align 8
  %9 = alloca ptr, align 8
  store i64 %0, ptr %4, align 8, !tbaa !15
  store i64 %1, ptr %5, align 8, !tbaa !15
  store i64 %2, ptr %6, align 8, !tbaa !15
  call void @llvm.lifetime.start.p0(i64 4, ptr %7) #8
  call void @llvm.lifetime.start.p0(i64 8, ptr %8) #8
  call void @llvm.lifetime.start.p0(i64 8, ptr %9) #8
  %10 = load i64, ptr %5, align 8, !tbaa !15
  %11 = inttoptr i64 %10 to ptr
  store ptr %11, ptr %8, align 8, !tbaa !9
  %12 = load i64, ptr %6, align 8, !tbaa !15
  %13 = inttoptr i64 %12 to ptr
  store ptr %13, ptr %9, align 8, !tbaa !9
  %14 = load ptr, ptr %8, align 8, !tbaa !9
  %15 = getelementptr inbounds nuw %struct.NameEntry, ptr %14, i32 0, i32 2
  %16 = load i32, ptr %15, align 4, !tbaa !50
  %17 = icmp sgt i32 %16, 1
  br i1 %17, label %18, label %48

18:                                               ; preds = %3
  store i32 0, ptr %7, align 4, !tbaa !10
  br label %19

19:                                               ; preds = %44, %18
  %20 = load i32, ptr %7, align 4, !tbaa !10
  %21 = load ptr, ptr %8, align 8, !tbaa !9
  %22 = getelementptr inbounds nuw %struct.NameEntry, ptr %21, i32 0, i32 2
  %23 = load i32, ptr %22, align 4, !tbaa !50
  %24 = icmp slt i32 %20, %23
  br i1 %24, label %25, label %47

25:                                               ; preds = %19
  %26 = load ptr, ptr %9, align 8, !tbaa !9
  %27 = load ptr, ptr %8, align 8, !tbaa !9
  %28 = getelementptr inbounds nuw %struct.NameEntry, ptr %27, i32 0, i32 5
  %29 = load ptr, ptr %28, align 8, !tbaa !51
  %30 = load i32, ptr %7, align 4, !tbaa !10
  %31 = sext i32 %30 to i64
  %32 = getelementptr inbounds i32, ptr %29, i64 %31
  %33 = load i32, ptr %32, align 4, !tbaa !10
  %34 = sext i32 %33 to i64
  %35 = getelementptr inbounds %struct.GroupNumMap, ptr %26, i64 %34
  %36 = getelementptr inbounds nuw %struct.GroupNumMap, ptr %35, i32 0, i32 0
  %37 = load i32, ptr %36, align 4, !tbaa !52
  %38 = load ptr, ptr %8, align 8, !tbaa !9
  %39 = getelementptr inbounds nuw %struct.NameEntry, ptr %38, i32 0, i32 5
  %40 = load ptr, ptr %39, align 8, !tbaa !51
  %41 = load i32, ptr %7, align 4, !tbaa !10
  %42 = sext i32 %41 to i64
  %43 = getelementptr inbounds i32, ptr %40, i64 %42
  store i32 %37, ptr %43, align 4, !tbaa !10
  br label %44

44:                                               ; preds = %25
  %45 = load i32, ptr %7, align 4, !tbaa !10
  %46 = add nsw i32 %45, 1
  store i32 %46, ptr %7, align 4, !tbaa !10
  br label %19, !llvm.loop !54

47:                                               ; preds = %19
  br label %65

48:                                               ; preds = %3
  %49 = load ptr, ptr %8, align 8, !tbaa !9
  %50 = getelementptr inbounds nuw %struct.NameEntry, ptr %49, i32 0, i32 2
  %51 = load i32, ptr %50, align 4, !tbaa !50
  %52 = icmp eq i32 %51, 1
  br i1 %52, label %53, label %64

53:                                               ; preds = %48
  %54 = load ptr, ptr %9, align 8, !tbaa !9
  %55 = load ptr, ptr %8, align 8, !tbaa !9
  %56 = getelementptr inbounds nuw %struct.NameEntry, ptr %55, i32 0, i32 4
  %57 = load i32, ptr %56, align 4, !tbaa !55
  %58 = sext i32 %57 to i64
  %59 = getelementptr inbounds %struct.GroupNumMap, ptr %54, i64 %58
  %60 = getelementptr inbounds nuw %struct.GroupNumMap, ptr %59, i32 0, i32 0
  %61 = load i32, ptr %60, align 4, !tbaa !52
  %62 = load ptr, ptr %8, align 8, !tbaa !9
  %63 = getelementptr inbounds nuw %struct.NameEntry, ptr %62, i32 0, i32 4
  store i32 %61, ptr %63, align 4, !tbaa !55
  br label %64

64:                                               ; preds = %53, %48
  br label %65

65:                                               ; preds = %64, %47
  call void @llvm.lifetime.end.p0(i64 8, ptr %9) #8
  call void @llvm.lifetime.end.p0(i64 8, ptr %8) #8
  call void @llvm.lifetime.end.p0(i64 4, ptr %7) #8
  ret i32 0
}